; Function Attrs: mustprogress uwtable
define noundef i32 @_ZN5dtm_t8get_xlenEv(ptr nocapture noundef nonnull align 8 dereferenceable(928) %0) local_unnamed_addr #0 align 2 personality ptr @__gxx_personality_v0 {
  %2 = getelementptr inbounds i8, ptr %0, i64 872
  store i64 8589934615, ptr %2, align 8
  %.sroa.22.0..sroa_idx.i.i34.i = getelementptr inbounds i8, ptr %0, i64 880
  store i32 4329480, ptr %.sroa.22.0..sroa_idx.i.i34.i, align 8
  %3 = getelementptr inbounds i8, ptr %0, i64 728
  %4 = load ptr, ptr %3, align 8
  tail call void @_ZN9context_t9switch_toEv(ptr noundef nonnull align 8 dereferenceable(32) %4)
  %5 = getelementptr inbounds i8, ptr %0, i64 888
  br label %6

6:                                                ; preds = %6, %1
  store i64 4294967318, ptr %2, align 8
  store i32 0, ptr %.sroa.22.0..sroa_idx.i.i34.i, align 8
  %7 = load ptr, ptr %3, align 8
  tail call void @_ZN9context_t9switch_toEv(ptr noundef nonnull align 8 dereferenceable(32) %7)
  %8 = load i32, ptr %5, align 8
  %9 = and i32 %8, 4096
  %.not28.i = icmp eq i32 %9, 0
  br i1 %.not28.i, label %_ZN5dtm_t20run_abstract_commandEjPKjmPjm.exit, label %6, !llvm.loop !11

_ZN5dtm_t20run_abstract_commandEjPKjmPjm.exit:    ; preds = %6
  %10 = and i32 %8, 1792
  %11 = icmp eq i32 %10, 0
  br i1 %11, label %12, label %17

12:                                               ; preds = %_ZN5dtm_t20run_abstract_commandEjPKjmPjm.exit
  %13 = tail call ptr @__cxa_allocate_exception(i64 16) #10
  invoke void @_ZNSt13runtime_errorC1EPKc(ptr noundef nonnull align 8 dereferenceable(16) %13, ptr noundef nonnull @.str.9)
          to label %14 unwind label %15

14:                                               ; preds = %12
  tail call void @__cxa_throw(ptr nonnull %13, ptr nonnull @_ZTISt13runtime_error, ptr nonnull @_ZNSt13runtime_errorD1Ev) #11
  unreachable

15:                                               ; preds = %12
  %16 = landingpad { ptr, i32 }
          cleanup
  br label %41

17:                                               ; preds = %_ZN5dtm_t20run_abstract_commandEjPKjmPjm.exit
  store i64 8589934614, ptr %2, align 8
  store i32 1792, ptr %.sroa.22.0..sroa_idx.i.i34.i, align 8
  %18 = load ptr, ptr %3, align 8
  tail call void @_ZN9context_t9switch_toEv(ptr noundef nonnull align 8 dereferenceable(32) %18)
  store i64 8589934615, ptr %2, align 8
  store i32 3280904, ptr %.sroa.22.0..sroa_idx.i.i34.i, align 8
  %19 = load ptr, ptr %3, align 8
  tail call void @_ZN9context_t9switch_toEv(ptr noundef nonnull align 8 dereferenceable(32) %19)
  br label %20

20:                                               ; preds = %20, %17
  store i64 4294967318, ptr %2, align 8
  store i32 0, ptr %.sroa.22.0..sroa_idx.i.i34.i, align 8
  %21 = load ptr, ptr %3, align 8
  tail call void @_ZN9context_t9switch_toEv(ptr noundef nonnull align 8 dereferenceable(32) %21)
  %22 = load i32, ptr %5, align 8
  %23 = and i32 %22, 4096
  %.not28.i13 = icmp eq i32 %23, 0
  br i1 %.not28.i13, label %_ZN5dtm_t20run_abstract_commandEjPKjmPjm.exit14, label %20, !llvm.loop !11

_ZN5dtm_t20run_abstract_commandEjPKjmPjm.exit14:  ; preds = %20
  %24 = and i32 %22, 1792
  %25 = icmp eq i32 %24, 0
  br i1 %25, label %40, label %26

26:                                               ; preds = %_ZN5dtm_t20run_abstract_commandEjPKjmPjm.exit14
  store i64 8589934614, ptr %2, align 8
  store i32 1792, ptr %.sroa.22.0..sroa_idx.i.i34.i, align 8
  %27 = load ptr, ptr %3, align 8
  tail call void @_ZN9context_t9switch_toEv(ptr noundef nonnull align 8 dereferenceable(32) %27)
  store i64 8589934615, ptr %2, align 8
  store i32 2232328, ptr %.sroa.22.0..sroa_idx.i.i34.i, align 8
  %28 = load ptr, ptr %3, align 8
  tail call void @_ZN9context_t9switch_toEv(ptr noundef nonnull align 8 dereferenceable(32) %28)
  br label %29

29:                                               ; preds = %29, %26
  store i64 4294967318, ptr %2, align 8
  store i32 0, ptr %.sroa.22.0..sroa_idx.i.i34.i, align 8
  %30 = load ptr, ptr %3, align 8
  tail call void @_ZN9context_t9switch_toEv(ptr noundef nonnull align 8 dereferenceable(32) %30)
  %31 = load i32, ptr %5, align 8
  %32 = and i32 %31, 4096
  %.not28.i17 = icmp eq i32 %32, 0
  br i1 %.not28.i17, label %_ZN5dtm_t20run_abstract_commandEjPKjmPjm.exit18, label %29, !llvm.loop !11

_ZN5dtm_t20run_abstract_commandEjPKjmPjm.exit18:  ; preds = %29
  %33 = and i32 %31, 1792
  %34 = icmp eq i32 %33, 0
  br i1 %34, label %40, label %35

35:                                               ; preds = %_ZN5dtm_t20run_abstract_commandEjPKjmPjm.exit18
  %36 = tail call ptr @__cxa_allocate_exception(i64 16) #10
  invoke void @_ZNSt13runtime_errorC1EPKc(ptr noundef nonnull align 8 dereferenceable(16) %36, ptr noundef nonnull @.str.10)
          to label %37 unwind label %38

37:                                               ; preds = %35
  tail call void @__cxa_throw(ptr nonnull %36, ptr nonnull @_ZTISt13runtime_error, ptr nonnull @_ZNSt13runtime_errorD1Ev) #11
  unreachable

38:                                               ; preds = %35
  %39 = landingpad { ptr, i32 }
          cleanup
  br label %41

40:                                               ; preds = %_ZN5dtm_t20run_abstract_commandEjPKjmPjm.exit18, %_ZN5dtm_t20run_abstract_commandEjPKjmPjm.exit14
  %.010 = phi i32 [ 64, %_ZN5dtm_t20run_abstract_commandEjPKjmPjm.exit14 ], [ 32, %_ZN5dtm_t20run_abstract_commandEjPKjmPjm.exit18 ]
  ret i32 %.010

41:                                               ; preds = %38, %15
  %.sink = phi ptr [ %36, %38 ], [ %13, %15 ]
  %.pn = phi { ptr, i32 } [ %39, %38 ], [ %16, %15 ]
  tail call void @__cxa_free_exception(ptr %.sink) #10
  resume { ptr, i32 } %.pn
}